target datalayout = "e-m:e-p270:32:32-p271:32:32-p272:64:64-i64:64-i128:128-f80:128-n8:16:32:64-S128"
target triple = "x86_64-pc-linux-gnu"

%struct._ts = type { ptr, ptr, ptr, i64, %struct.anon.805, i32, i32, i32, i32, i32, i32, i32, i32, ptr, ptr, ptr, ptr, ptr, ptr, ptr, ptr, i32, ptr, i64, i64, ptr, i64, i32, ptr, ptr, ptr, i64, i64, ptr, ptr, ptr, %struct._err_stackitem, ptr, i64, ptr, ptr }
%struct.anon.805 = type { i32 }
%struct._err_stackitem = type { ptr, ptr }

; Function Attrs: nounwind uwtable
define internal i32 @_memoryview_shared(ptr noundef %0, ptr noundef %1, ptr noundef %2) #0 {
  %4 = alloca i32, align 4
  %5 = alloca ptr, align 8
  %6 = alloca ptr, align 8
  %7 = alloca ptr, align 8
  %8 = alloca ptr, align 8
  %9 = alloca i32, align 4
  store ptr %0, ptr %5, align 8, !tbaa !233
  store ptr %1, ptr %6, align 8, !tbaa !3
  store ptr %2, ptr %7, align 8, !tbaa !234
  call void @llvm.lifetime.start.p0(i64 8, ptr %8) #8
  %10 = call ptr @PyMem_RawMalloc(i64 noundef 80)
  store ptr %10, ptr %8, align 8, !tbaa !8
  %11 = load ptr, ptr %8, align 8, !tbaa !8
  %12 = icmp eq ptr %11, null
  br i1 %12, label %13, label %14

13:                                               ; preds = %3
  store i32 -1, ptr %4, align 4
  store i32 1, ptr %9, align 4
  br label %27

14:                                               ; preds = %3
  %15 = load ptr, ptr %6, align 8, !tbaa !3
  %16 = load ptr, ptr %8, align 8, !tbaa !8
  %17 = call i32 @PyObject_GetBuffer(ptr noundef %15, ptr noundef %16, i32 noundef 284)
  %18 = icmp slt i32 %17, 0
  br i1 %18, label %19, label %21

19:                                               ; preds = %14
  %20 = load ptr, ptr %8, align 8, !tbaa !8
  call void @PyMem_RawFree(ptr noundef %20)
  store i32 -1, ptr %4, align 4
  store i32 1, ptr %9, align 4
  br label %27

21:                                               ; preds = %14
  %22 = load ptr, ptr %7, align 8, !tbaa !234
  %23 = load ptr, ptr %5, align 8, !tbaa !233
  %24 = getelementptr inbounds nuw %struct._ts, ptr %23, i32 0, i32 2
  %25 = load ptr, ptr %24, align 8, !tbaa !236
  %26 = load ptr, ptr %8, align 8, !tbaa !8
  call void @_PyXIData_Init(ptr noundef %22, ptr noundef %25, ptr noundef %26, ptr noundef null, ptr noundef @_memoryview_from_xid)
  store i32 0, ptr %4, align 4
  store i32 1, ptr %9, align 4
  br label %27

27:                                               ; preds = %21, %19, %13
  call void @llvm.lifetime.end.p0(i64 8, ptr %8) #8
  %28 = load i32, ptr %4, align 4
  ret i32 %28
}