; Function Attrs: nounwind uwtable
define internal range(i32 -1, 1) i32 @_memoryview_shared(ptr noundef readonly captures(none) %0, ptr noundef %1, ptr noundef %2) #0 {
  %4 = tail call ptr @PyMem_RawMalloc(i64 noundef 80) #7
  %5 = icmp eq ptr %4, null
  br i1 %5, label %13, label %6

6:                                                ; preds = %3
  %7 = tail call i32 @PyObject_GetBuffer(ptr noundef %1, ptr noundef nonnull %4, i32 noundef 284) #7
  %8 = icmp slt i32 %7, 0
  br i1 %8, label %9, label %10

9:                                                ; preds = %6
  tail call void @PyMem_RawFree(ptr noundef nonnull %4) #7
  br label %13

10:                                               ; preds = %6
  %11 = getelementptr inbounds nuw i8, ptr %0, i64 16
  %12 = load ptr, ptr %11, align 8, !tbaa !216
  tail call void @_PyXIData_Init(ptr noundef %2, ptr noundef %12, ptr noundef nonnull %4, ptr noundef null, ptr noundef nonnull @_memoryview_from_xid) #7
  br label %13

13:                                               ; preds = %3, %10, %9
  %.0 = phi i32 [ -1, %9 ], [ 0, %10 ], [ -1, %3 ]
  ret i32 %.0
}